target datalayout = "e-m:e-p270:32:32-p271:32:32-p272:64:64-i64:64-i128:128-f80:128-n8:16:32:64-S128"
target triple = "x86_64-pc-linux-gnu"

%struct.RBasic = type { i64, i64 }

; Function Attrs: inlinehint nounwind sspstrong willreturn memory(none) uwtable
define internal zeroext i1 @RB_IMMEDIATE_P(i64 noundef %0) #1 {
  %2 = alloca i64, align 8
  store i64 %0, ptr %2, align 8, !tbaa !11
  %3 = load i64, ptr %2, align 8, !tbaa !11
  %4 = and i64 %3, 7
  %5 = icmp ne i64 %4, 0
  ret i1 %5
}

; Function Attrs: inlinehint nounwind sspstrong willreturn memory(none) uwtable
define internal zeroext i1 @RB_NIL_P(i64 noundef %0) #1 {
  %2 = alloca i64, align 8
  store i64 %0, ptr %2, align 8, !tbaa !11
  %3 = load i64, ptr %2, align 8, !tbaa !11
  %4 = icmp eq i64 %3, 4
  ret i1 %4
}

; Function Attrs: inlinehint nounwind sspstrong willreturn memory(read) uwtable
define internal i32 @RB_BUILTIN_TYPE(i64 noundef %0) #7 {
  %2 = alloca i64, align 8
  %3 = alloca i64, align 8
  store i64 %0, ptr %2, align 8, !tbaa !11
  call void @llvm.lifetime.start.p0(i64 8, ptr %3) #28
  %4 = load i64, ptr %2, align 8, !tbaa !11
  %5 = inttoptr i64 %4 to ptr
  %6 = getelementptr inbounds nuw %struct.RBasic, ptr %5, i32 0, i32 0
  %7 = load i64, ptr %6, align 8, !tbaa !28
  %8 = and i64 %7, 31
  store i64 %8, ptr %3, align 8, !tbaa !11
  %9 = load i64, ptr %3, align 8, !tbaa !11
  %10 = trunc i64 %9 to i32
  call void @llvm.lifetime.end.p0(i64 8, ptr %3) #28
  ret i32 %10
}

; Function Attrs: inlinehint nounwind sspstrong willreturn memory(none) uwtable
define internal zeroext i1 @RB_SPECIAL_CONST_P(i64 noundef %0) #1 {
  %2 = alloca i64, align 8
  store i64 %0, ptr %2, align 8, !tbaa !11
  %3 = load i64, ptr %2, align 8, !tbaa !11
  %4 = icmp eq i64 %3, 0
  br i1 %4, label %8, label %5

5:                                                ; preds = %1
  %6 = load i64, ptr %2, align 8, !tbaa !11
  %7 = call zeroext i1 @RB_IMMEDIATE_P(i64 noundef %6) #27
  br label %8

8:                                                ; preds = %5, %1
  %9 = phi i1 [ true, %1 ], [ %7, %5 ]
  ret i1 %9
}

; Function Attrs: nounwind sspstrong uwtable
define internal i64 @rb_mod_cmp(i64 noundef %0, i64 noundef %1) #0 {
  %3 = alloca i64, align 8
  %4 = alloca i64, align 8
  %5 = alloca i64, align 8
  %6 = alloca i64, align 8
  %7 = alloca i32, align 4
  store i64 %0, ptr %4, align 8, !tbaa !11
  store i64 %1, ptr %5, align 8, !tbaa !11
  call void @llvm.lifetime.start.p0(i64 8, ptr %6) #28
  %8 = load i64, ptr %4, align 8, !tbaa !11
  %9 = load i64, ptr %5, align 8, !tbaa !11
  %10 = icmp eq i64 %8, %9
  br i1 %10, label %11, label %12

11:                                               ; preds = %2
  store i64 1, ptr %3, align 8
  store i32 1, ptr %7, align 4
  br label %36

12:                                               ; preds = %2
  %13 = load i64, ptr %5, align 8, !tbaa !11
  %14 = call zeroext i1 @RB_SPECIAL_CONST_P(i64 noundef %13) #27
  br i1 %14, label %23, label %15

15:                                               ; preds = %12
  %16 = load i64, ptr %5, align 8, !tbaa !11
  %17 = call i32 @RB_BUILTIN_TYPE(i64 noundef %16) #29
  %18 = icmp eq i32 %17, 2
  br i1 %18, label %24, label %19

19:                                               ; preds = %15
  %20 = load i64, ptr %5, align 8, !tbaa !11
  %21 = call i32 @RB_BUILTIN_TYPE(i64 noundef %20) #29
  %22 = icmp eq i32 %21, 3
  br i1 %22, label %24, label %23

23:                                               ; preds = %19, %12
  store i64 4, ptr %3, align 8
  store i32 1, ptr %7, align 4
  br label %36

24:                                               ; preds = %19, %15
  %25 = load i64, ptr %4, align 8, !tbaa !11
  %26 = load i64, ptr %5, align 8, !tbaa !11
  %27 = call i64 @rb_class_inherited_p(i64 noundef %25, i64 noundef %26) #29
  store i64 %27, ptr %6, align 8, !tbaa !11
  %28 = load i64, ptr %6, align 8, !tbaa !11
  %29 = call zeroext i1 @RB_NIL_P(i64 noundef %28) #27
  br i1 %29, label %30, label %31

30:                                               ; preds = %24
  store i64 4, ptr %3, align 8
  store i32 1, ptr %7, align 4
  br label %36

31:                                               ; preds = %24
  %32 = load i64, ptr %6, align 8, !tbaa !11
  %33 = icmp ne i64 %32, 0
  br i1 %33, label %34, label %35

34:                                               ; preds = %31
  store i64 -1, ptr %3, align 8
  store i32 1, ptr %7, align 4
  br label %36

35:                                               ; preds = %31
  store i64 3, ptr %3, align 8
  store i32 1, ptr %7, align 4
  br label %36

36:                                               ; preds = %35, %34, %30, %23, %11
  call void @llvm.lifetime.end.p0(i64 8, ptr %6) #28
  %37 = load i64, ptr %3, align 8
  ret i64 %37
}