; Function Attrs: mustprogress nofree nounwind sspstrong willreturn memory(read) uwtable
define internal range(i64 -1, 5) i64 @rb_mod_cmp(i64 noundef %0, i64 noundef %1) #11 {
  %3 = icmp eq i64 %0, %1
  br i1 %3, label %17, label %4

4:                                                ; preds = %2
  %5 = icmp eq i64 %1, 0
  %6 = and i64 %1, 7
  %7 = icmp ne i64 %6, 0
  %8 = or i1 %5, %7
  br i1 %8, label %17, label %9

9:                                                ; preds = %4
  %10 = inttoptr i64 %1 to ptr
  %11 = load i64, ptr %10, align 8, !tbaa !24
  %12 = and i64 %11, 30
  %switch = icmp eq i64 %12, 2
  br i1 %switch, label %13, label %17

13:                                               ; preds = %9
  %14 = tail call i64 @rb_class_inherited_p(i64 noundef %0, i64 noundef %1) #26
  %15 = icmp eq i64 %14, 4
  br i1 %15, label %17, label %16

16:                                               ; preds = %13
  %.not = icmp eq i64 %14, 0
  %. = select i1 %.not, i64 3, i64 -1
  br label %17

17:                                               ; preds = %9, %16, %13, %4, %2
  %.0 = phi i64 [ 1, %2 ], [ 4, %9 ], [ 4, %4 ], [ 4, %13 ], [ %., %16 ]
  ret i64 %.0
}